; ModuleID = '24/391.c'
source_filename = "24/391.c"
target datalayout = "e-m:e-p270:32:32-p271:32:32-p272:64:64-i64:64-f80:128-n8:16:32:64-S128"
target triple = "x86_64-pc-linux-gnu"

@.str = private unnamed_addr constant [6 x i8] c"%s\0A%s\00", align 1

; Function Attrs: noinline nounwind uwtable
define dso_local i32 @main() #0 {
  %1 = alloca i32, align 4
  %2 = alloca [1000 x i8], align 16
  %3 = alloca [50 x [20 x i8]], align 16
  %4 = alloca i32, align 4
  %5 = alloca i32, align 4
  %6 = alloca i32, align 4
  %7 = alloca i32, align 4
  %8 = alloca i32, align 4
  %9 = alloca i32, align 4
  store i32 0, i32* %1, align 4
  store i32 0, i32* %6, align 4
  store i32 0, i32* %7, align 4
  store i32 0, i32* %8, align 4
  store i32 0, i32* %9, align 4
  %10 = getelementptr inbounds [1000 x i8], [1000 x i8]* %2, i64 0, i64 0
  %11 = call i32 (i8*, ...) bitcast (i32 (...)* @gets to i32 (i8*, ...)*)(i8* %10)
  %12 = getelementptr inbounds [1000 x i8], [1000 x i8]* %2, i64 0, i64 0
  %13 = call i64 @strlen(i8* %12) #3
  %14 = trunc i64 %13 to i32
  store i32 %14, i32* %5, align 4
  store i32 0, i32* %4, align 4
  br label %15

15:                                               ; preds = %66, %0
  %16 = load i32, i32* %4, align 4
  %17 = load i32, i32* %5, align 4
  %18 = icmp slt i32 %16, %17
  br i1 %18, label %19, label %69

19:                                               ; preds = %15
  %20 = load i32, i32* %4, align 4
  %21 = sext i32 %20 to i64
  %22 = getelementptr inbounds [1000 x i8], [1000 x i8]* %2, i64 0, i64 %21
  %23 = load i8, i8* %22, align 1
  %24 = sext i8 %23 to i32
  %25 = icmp sge i32 %24, 65
  br i1 %25, label %26, label %33

26:                                               ; preds = %19
  %27 = load i32, i32* %4, align 4
  %28 = sext i32 %27 to i64
  %29 = getelementptr inbounds [1000 x i8], [1000 x i8]* %2, i64 0, i64 %28
  %30 = load i8, i8* %29, align 1
  %31 = sext i8 %30 to i32
  %32 = icmp sle i32 %31, 90
  br i1 %32, label %65, label %33

33:                                               ; preds = %26, %19
  %34 = load i32, i32* %4, align 4
  %35 = sext i32 %34 to i64
  %36 = getelementptr inbounds [1000 x i8], [1000 x i8]* %2, i64 0, i64 %35
  %37 = load i8, i8* %36, align 1
  %38 = sext i8 %37 to i32
  %39 = icmp sge i32 %38, 96
  br i1 %39, label %40, label %47

40:                                               ; preds = %33
  %41 = load i32, i32* %4, align 4
  %42 = sext i32 %41 to i64
  %43 = getelementptr inbounds [1000 x i8], [1000 x i8]* %2, i64 0, i64 %42
  %44 = load i8, i8* %43, align 1
  %45 = sext i8 %44 to i32
  %46 = icmp sle i32 %45, 122
  br i1 %46, label %65, label %47

47:                                               ; preds = %40, %33
  %48 = load i32, i32* %4, align 4
  %49 = sext i32 %48 to i64
  %50 = getelementptr inbounds [1000 x i8], [1000 x i8]* %2, i64 0, i64 %49
  %51 = load i8, i8* %50, align 1
  %52 = sext i8 %51 to i32
  %53 = icmp eq i32 %52, 39
  br i1 %53, label %65, label %54

54:                                               ; preds = %47
  %55 = load i32, i32* %4, align 4
  %56 = sext i32 %55 to i64
  %57 = getelementptr inbounds [1000 x i8], [1000 x i8]* %2, i64 0, i64 %56
  %58 = load i8, i8* %57, align 1
  %59 = sext i8 %58 to i32
  %60 = icmp eq i32 %59, 32
  br i1 %60, label %65, label %61

61:                                               ; preds = %54
  %62 = load i32, i32* %4, align 4
  %63 = sext i32 %62 to i64
  %64 = getelementptr inbounds [1000 x i8], [1000 x i8]* %2, i64 0, i64 %63
  store i8 0, i8* %64, align 1
  br label %65

65:                                               ; preds = %61, %54, %47, %40, %26
  br label %66

66:                                               ; preds = %65
  %67 = load i32, i32* %4, align 4
  %68 = add nsw i32 %67, 1
  store i32 %68, i32* %4, align 4
  br label %15

69:                                               ; preds = %15
  store i32 0, i32* %4, align 4
  br label %70

70:                                               ; preds = %113, %69
  %71 = load i32, i32* %4, align 4
  %72 = sext i32 %71 to i64
  %73 = getelementptr inbounds [1000 x i8], [1000 x i8]* %2, i64 0, i64 %72
  %74 = load i8, i8* %73, align 1
  %75 = sext i8 %74 to i32
  %76 = icmp ne i32 %75, 0
  br i1 %76, label %77, label %116

77:                                               ; preds = %70
  %78 = load i32, i32* %4, align 4
  %79 = sext i32 %78 to i64
  %80 = getelementptr inbounds [1000 x i8], [1000 x i8]* %2, i64 0, i64 %79
  %81 = load i8, i8* %80, align 1
  %82 = sext i8 %81 to i32
  %83 = icmp ne i32 %82, 32
  br i1 %83, label %84, label %103

84:                                               ; preds = %77
  %85 = load i32, i32* %4, align 4
  %86 = sext i32 %85 to i64
  %87 = getelementptr inbounds [1000 x i8], [1000 x i8]* %2, i64 0, i64 %86
  %88 = load i8, i8* %87, align 1
  %89 = sext i8 %88 to i32
  %90 = icmp ne i32 %89, 0
  br i1 %90, label %91, label %103

91:                                               ; preds = %84
  %92 = load i32, i32* %4, align 4
  %93 = sext i32 %92 to i64
  %94 = getelementptr inbounds [1000 x i8], [1000 x i8]* %2, i64 0, i64 %93
  %95 = load i8, i8* %94, align 1
  %96 = load i32, i32* %6, align 4
  %97 = sext i32 %96 to i64
  %98 = getelementptr inbounds [50 x [20 x i8]], [50 x [20 x i8]]* %3, i64 0, i64 %97
  %99 = load i32, i32* %7, align 4
  %100 = add nsw i32 %99, 1
  store i32 %100, i32* %7, align 4
  %101 = sext i32 %99 to i64
  %102 = getelementptr inbounds [20 x i8], [20 x i8]* %98, i64 0, i64 %101
  store i8 %95, i8* %102, align 1
  br label %112

103:                                              ; preds = %84, %77
  %104 = load i32, i32* %6, align 4
  %105 = sext i32 %104 to i64
  %106 = getelementptr inbounds [50 x [20 x i8]], [50 x [20 x i8]]* %3, i64 0, i64 %105
  %107 = load i32, i32* %7, align 4
  %108 = sext i32 %107 to i64
  %109 = getelementptr inbounds [20 x i8], [20 x i8]* %106, i64 0, i64 %108
  store i8 0, i8* %109, align 1
  %110 = load i32, i32* %6, align 4
  %111 = add nsw i32 %110, 1
  store i32 %111, i32* %6, align 4
  store i32 0, i32* %7, align 4
  br label %112

112:                                              ; preds = %103, %91
  br label %113

113:                                              ; preds = %112
  %114 = load i32, i32* %4, align 4
  %115 = add nsw i32 %114, 1
  store i32 %115, i32* %4, align 4
  br label %70

116:                                              ; preds = %70
  %117 = load i32, i32* %6, align 4
  %118 = sext i32 %117 to i64
  %119 = getelementptr inbounds [50 x [20 x i8]], [50 x [20 x i8]]* %3, i64 0, i64 %118
  %120 = load i32, i32* %7, align 4
  %121 = sext i32 %120 to i64
  %122 = getelementptr inbounds [20 x i8], [20 x i8]* %119, i64 0, i64 %121
  store i8 0, i8* %122, align 1
  %123 = load i32, i32* %6, align 4
  %124 = add nsw i32 %123, 1
  store i32 %124, i32* %6, align 4
  store i32 0, i32* %4, align 4
  br label %125

125:                                              ; preds = %158, %116
  %126 = load i32, i32* %4, align 4
  %127 = load i32, i32* %6, align 4
  %128 = icmp slt i32 %126, %127
  br i1 %128, label %129, label %161

129:                                              ; preds = %125
  %130 = load i32, i32* %4, align 4
  %131 = sext i32 %130 to i64
  %132 = getelementptr inbounds [50 x [20 x i8]], [50 x [20 x i8]]* %3, i64 0, i64 %131
  %133 = getelementptr inbounds [20 x i8], [20 x i8]* %132, i64 0, i64 0
  %134 = call i64 @strlen(i8* %133) #3
  %135 = load i32, i32* %8, align 4
  %136 = sext i32 %135 to i64
  %137 = getelementptr inbounds [50 x [20 x i8]], [50 x [20 x i8]]* %3, i64 0, i64 %136
  %138 = getelementptr inbounds [20 x i8], [20 x i8]* %137, i64 0, i64 0
  %139 = call i64 @strlen(i8* %138) #3
  %140 = icmp ugt i64 %134, %139
  br i1 %140, label %141, label %143

141:                                              ; preds = %129
  %142 = load i32, i32* %4, align 4
  store i32 %142, i32* %8, align 4
  br label %143

143:                                              ; preds = %141, %129
  %144 = load i32, i32* %4, align 4
  %145 = sext i32 %144 to i64
  %146 = getelementptr inbounds [50 x [20 x i8]], [50 x [20 x i8]]* %3, i64 0, i64 %145
  %147 = getelementptr inbounds [20 x i8], [20 x i8]* %146, i64 0, i64 0
  %148 = call i64 @strlen(i8* %147) #3
  %149 = load i32, i32* %9, align 4
  %150 = sext i32 %149 to i64
  %151 = getelementptr inbounds [50 x [20 x i8]], [50 x [20 x i8]]* %3, i64 0, i64 %150
  %152 = getelementptr inbounds [20 x i8], [20 x i8]* %151, i64 0, i64 0
  %153 = call i64 @strlen(i8* %152) #3
  %154 = icmp ult i64 %148, %153
  br i1 %154, label %155, label %157

155:                                              ; preds = %143
  %156 = load i32, i32* %4, align 4
  store i32 %156, i32* %9, align 4
  br label %157

157:                                              ; preds = %155, %143
  br label %158

158:                                              ; preds = %157
  %159 = load i32, i32* %4, align 4
  %160 = add nsw i32 %159, 1
  store i32 %160, i32* %4, align 4
  br label %125

161:                                              ; preds = %125
  %162 = load i32, i32* %8, align 4
  %163 = sext i32 %162 to i64
  %164 = getelementptr inbounds [50 x [20 x i8]], [50 x [20 x i8]]* %3, i64 0, i64 %163
  %165 = getelementptr inbounds [20 x i8], [20 x i8]* %164, i64 0, i64 0
  %166 = load i32, i32* %9, align 4
  %167 = sext i32 %166 to i64
  %168 = getelementptr inbounds [50 x [20 x i8]], [50 x [20 x i8]]* %3, i64 0, i64 %167
  %169 = getelementptr inbounds [20 x i8], [20 x i8]* %168, i64 0, i64 0
  %170 = call i32 (i8*, ...) @printf(i8* getelementptr inbounds ([6 x i8], [6 x i8]* @.str, i64 0, i64 0), i8* %165, i8* %169)
  %171 = load i32, i32* %1, align 4
  ret i32 %171
}

declare dso_local i32 @gets(...) #1

; Function Attrs: nounwind readonly
declare dso_local i64 @strlen(i8*) #2

declare dso_local i32 @printf(i8*, ...) #1


!llvm.module.flags = !{!0}
!llvm.ident = !{!1}

!0 = !{i32 1, !"wchar_size", i32 4}
!1 = !{!"clang version 10.0.0-4ubuntu1 "}
